target datalayout = "e-m:e-p270:32:32-p271:32:32-p272:64:64-i64:64-i128:128-f80:128-n8:16:32:64-S128"
target triple = "x86_64-pc-linux-gnu"

%struct._libxml_doc_props = type { ptr, i8, i8, i8, i8, i8, i8, i8 }
%struct._zval_struct = type { %union._zend_value, %union.anon.9, %union.anon.12 }
%union._zend_value = type { i64 }
%union.anon.9 = type { i32 }
%union.anon.12 = type { i32 }
%struct._zend_array = type { %struct._zend_refcounted_h, %union.anon.1, i32, %union.anon.2, i32, i32, i32, i32, i64, ptr }
%struct._zend_refcounted_h = type { i32, %union.anon.0 }
%union.anon.0 = type { i32 }
%union.anon.1 = type { i32 }
%union.anon.2 = type { ptr }
%struct._php_libxml_ref_obj = type { ptr, ptr, %struct.php_libxml_cache_tag, i32, i8 }
%struct.php_libxml_cache_tag = type { i64 }
%struct._zend_class_entry = type { i8, ptr, %union.anon, i32, i32, i32, i32, ptr, ptr, ptr, %struct._zend_array, %struct._zend_array, %struct._zend_array, ptr, ptr, ptr, ptr, ptr, ptr, ptr, ptr, ptr, ptr, ptr, ptr, ptr, ptr, ptr, ptr, ptr, ptr, ptr, %union.anon.3, ptr, ptr, ptr, ptr, i32, i32, %union.anon.4, ptr, ptr, ptr, ptr, i32, ptr, ptr, %union.anon.5 }
%union.anon = type { ptr }
%union.anon.3 = type { ptr }
%union.anon.4 = type { ptr }
%union.anon.5 = type { %struct.anon.6 }
%struct.anon.6 = type { ptr, i32, i32 }

@default_doc_props = internal constant %struct._libxml_doc_props { ptr null, i8 0, i8 0, i8 0, i8 1, i8 0, i8 1, i8 0 }, align 8

; Function Attrs: nounwind uwtable
define hidden ptr @dom_get_doc_props(ptr noundef %0) #0 {
  %2 = alloca ptr, align 8
  %3 = alloca ptr, align 8
  %4 = alloca ptr, align 8
  store ptr %0, ptr %3, align 8
  %5 = load ptr, ptr %3, align 8
  %6 = icmp ne ptr %5, null
  br i1 %6, label %7, label %16

7:                                                ; preds = %1
  %8 = load ptr, ptr %3, align 8
  %9 = getelementptr inbounds %struct._php_libxml_ref_obj, ptr %8, i32 0, i32 1
  %10 = load ptr, ptr %9, align 8
  %11 = icmp ne ptr %10, null
  br i1 %11, label %12, label %16

12:                                               ; preds = %7
  %13 = load ptr, ptr %3, align 8
  %14 = getelementptr inbounds %struct._php_libxml_ref_obj, ptr %13, i32 0, i32 1
  %15 = load ptr, ptr %14, align 8
  store ptr %15, ptr %2, align 8
  br label %27

16:                                               ; preds = %7, %1
  %17 = call noalias ptr @_emalloc_16()
  store ptr %17, ptr %4, align 8
  %18 = load ptr, ptr %4, align 8
  call void @llvm.memcpy.p0.p0.i64(ptr align 8 %18, ptr align 8 @default_doc_props, i64 16, i1 false)
  %19 = load ptr, ptr %3, align 8
  %20 = icmp ne ptr %19, null
  br i1 %20, label %21, label %25

21:                                               ; preds = %16
  %22 = load ptr, ptr %4, align 8
  %23 = load ptr, ptr %3, align 8
  %24 = getelementptr inbounds %struct._php_libxml_ref_obj, ptr %23, i32 0, i32 1
  store ptr %22, ptr %24, align 8
  br label %25

25:                                               ; preds = %21, %16
  %26 = load ptr, ptr %4, align 8
  store ptr %26, ptr %2, align 8
  br label %27

27:                                               ; preds = %25, %12
  %28 = load ptr, ptr %2, align 8
  ret ptr %28
}

; Function Attrs: nounwind uwtable
define hidden void @dom_set_doc_classmap(ptr noundef %0, ptr noundef %1, ptr noundef %2) #0 {
  %4 = alloca ptr, align 8
  %5 = alloca ptr, align 8
  %6 = alloca ptr, align 8
  %7 = alloca %struct._zval_struct, align 8
  %8 = alloca ptr, align 8
  %9 = alloca ptr, align 8
  %10 = alloca ptr, align 8
  %11 = alloca ptr, align 8
  %12 = alloca ptr, align 8
  store ptr %0, ptr %9, align 8
  store ptr %1, ptr %10, align 8
  store ptr %2, ptr %11, align 8
  %13 = load ptr, ptr %9, align 8
  %14 = icmp ne ptr %13, null
  br i1 %14, label %15, label %61

15:                                               ; preds = %3
  %16 = load ptr, ptr %9, align 8
  %17 = call ptr @dom_get_doc_props(ptr noundef %16)
  store ptr %17, ptr %12, align 8
  %18 = load ptr, ptr %12, align 8
  %19 = getelementptr inbounds %struct._libxml_doc_props, ptr %18, i32 0, i32 0
  %20 = load ptr, ptr %19, align 8
  %21 = icmp eq ptr %20, null
  br i1 %21, label %22, label %33

22:                                               ; preds = %15
  %23 = load ptr, ptr %11, align 8
  %24 = icmp eq ptr %23, null
  br i1 %24, label %25, label %26

25:                                               ; preds = %22
  br label %61

26:                                               ; preds = %22
  %27 = call noalias ptr @_emalloc_56()
  %28 = load ptr, ptr %12, align 8
  %29 = getelementptr inbounds %struct._libxml_doc_props, ptr %28, i32 0, i32 0
  store ptr %27, ptr %29, align 8
  %30 = load ptr, ptr %12, align 8
  %31 = getelementptr inbounds %struct._libxml_doc_props, ptr %30, i32 0, i32 0
  %32 = load ptr, ptr %31, align 8
  call void @_zend_hash_init(ptr noundef %32, i32 noundef 0, ptr noundef null, i1 noundef zeroext false)
  br label %33

33:                                               ; preds = %26, %15
  %34 = load ptr, ptr %11, align 8
  %35 = icmp ne ptr %34, null
  br i1 %35, label %36, label %52

36:                                               ; preds = %33
  %37 = load ptr, ptr %12, align 8
  %38 = getelementptr inbounds %struct._libxml_doc_props, ptr %37, i32 0, i32 0
  %39 = load ptr, ptr %38, align 8
  %40 = load ptr, ptr %10, align 8
  %41 = getelementptr inbounds %struct._zend_class_entry, ptr %40, i32 0, i32 1
  %42 = load ptr, ptr %41, align 8
  %43 = load ptr, ptr %11, align 8
  store ptr %39, ptr %4, align 8
  store ptr %42, ptr %5, align 8
  store ptr %43, ptr %6, align 8
  %44 = load ptr, ptr %6, align 8
  store ptr %44, ptr %7, align 8
  %45 = getelementptr inbounds %struct._zval_struct, ptr %7, i32 0, i32 1
  store i32 13, ptr %45, align 8
  %46 = load ptr, ptr %4, align 8
  %47 = load ptr, ptr %5, align 8
  %48 = call ptr @zend_hash_update(ptr noundef %46, ptr noundef %47, ptr noundef %7) #12
  store ptr %48, ptr %8, align 8
  %49 = load ptr, ptr %8, align 8
  %50 = load ptr, ptr %49, align 8
  %51 = icmp ne ptr %50, null
  call void @llvm.assume(i1 %51)
  br label %60

52:                                               ; preds = %33
  %53 = load ptr, ptr %12, align 8
  %54 = getelementptr inbounds %struct._libxml_doc_props, ptr %53, i32 0, i32 0
  %55 = load ptr, ptr %54, align 8
  %56 = load ptr, ptr %10, align 8
  %57 = getelementptr inbounds %struct._zend_class_entry, ptr %56, i32 0, i32 1
  %58 = load ptr, ptr %57, align 8
  %59 = call i32 @zend_hash_del(ptr noundef %55, ptr noundef %58)
  br label %60

60:                                               ; preds = %52, %36
  br label %61

61:                                               ; preds = %60, %25, %3
  ret void
}