; Function Attrs: nounwind uwtable
define hidden void @dom_set_doc_classmap(ptr noundef %0, ptr nocapture noundef readonly %1, ptr noundef %2) local_unnamed_addr #1 {
  %4 = alloca %struct._zval_struct, align 8
  %.not = icmp eq ptr %0, null
  br i1 %.not, label %26, label %5

5:                                                ; preds = %3
  %6 = getelementptr inbounds i8, ptr %0, i64 8
  %7 = load ptr, ptr %6, align 8
  %.not11.i = icmp eq ptr %7, null
  br i1 %.not11.i, label %dom_get_doc_props.exit.thread, label %dom_get_doc_props.exit

dom_get_doc_props.exit.thread:                    ; preds = %5
  %8 = tail call noalias ptr @_emalloc_16() #16
  tail call void @llvm.memcpy.p0.p0.i64(ptr noundef nonnull align 8 dereferenceable(16) %8, ptr noundef nonnull align 8 dereferenceable(16) @default_doc_props, i64 16, i1 false)
  store ptr %8, ptr %6, align 8
  br label %10

dom_get_doc_props.exit:                           ; preds = %5
  %.pre = load ptr, ptr %7, align 8
  %9 = icmp eq ptr %.pre, null
  br i1 %9, label %10, label %13

10:                                               ; preds = %dom_get_doc_props.exit.thread, %dom_get_doc_props.exit
  %.0.i21 = phi ptr [ %8, %dom_get_doc_props.exit.thread ], [ %7, %dom_get_doc_props.exit ]
  %11 = icmp eq ptr %2, null
  br i1 %11, label %26, label %.thread

.thread:                                          ; preds = %10
  %12 = tail call noalias ptr @_emalloc_56() #16
  store ptr %12, ptr %.0.i21, align 8
  tail call void @_zend_hash_init(ptr noundef %12, i32 noundef 0, ptr noundef null, i1 noundef zeroext false) #16
  %.pre19 = load ptr, ptr %.0.i21, align 8
  br label %14

13:                                               ; preds = %dom_get_doc_props.exit
  %.not17 = icmp eq ptr %2, null
  br i1 %.not17, label %22, label %14

14:                                               ; preds = %.thread, %13
  %15 = phi ptr [ %.pre19, %.thread ], [ %.pre, %13 ]
  %16 = getelementptr inbounds i8, ptr %1, i64 8
  %17 = load ptr, ptr %16, align 8
  store ptr %2, ptr %4, align 8
  %18 = getelementptr inbounds i8, ptr %4, i64 8
  store i32 13, ptr %18, align 8
  %19 = call ptr @zend_hash_update(ptr noundef %15, ptr noundef %17, ptr noundef nonnull %4) #16
  %20 = load ptr, ptr %19, align 8
  %21 = icmp ne ptr %20, null
  call void @llvm.assume(i1 %21)
  br label %26

22:                                               ; preds = %13
  %23 = getelementptr inbounds i8, ptr %1, i64 8
  %24 = load ptr, ptr %23, align 8
  %25 = tail call i32 @zend_hash_del(ptr noundef nonnull %.pre, ptr noundef %24) #16
  br label %26

26:                                               ; preds = %14, %22, %10, %3
  ret void
}